target datalayout = "e-m:e-p270:32:32-p271:32:32-p272:64:64-i64:64-i128:128-f80:128-n8:16:32:64-S128"
target triple = "x86_64-pc-linux-gnu"

%struct.Vec_Wec_t_ = type { i32, i32, ptr }
%struct.Vec_Int_t_ = type { i32, i32, ptr }

@.str.27 = private unnamed_addr constant [24 x i8] c"%2d : S = %3d  D = %3d\0A\00", align 1

; Function Attrs: inlinehint nounwind uwtable
define internal i32 @Vec_IntSize(ptr noundef %0) #2 {
  %2 = alloca ptr, align 8
  store ptr %0, ptr %2, align 8, !tbaa !54
  %3 = load ptr, ptr %2, align 8, !tbaa !54
  %4 = getelementptr inbounds nuw %struct.Vec_Int_t_, ptr %3, i32 0, i32 1
  %5 = load i32, ptr %4, align 4, !tbaa !55
  ret i32 %5
}

; Function Attrs: inlinehint nounwind uwtable
define internal i32 @Vec_WecLevelSize(ptr noundef %0, i32 noundef %1) #2 {
  %3 = alloca ptr, align 8
  %4 = alloca i32, align 4
  store ptr %0, ptr %3, align 8, !tbaa !45
  store i32 %1, ptr %4, align 4, !tbaa !3
  %5 = load ptr, ptr %3, align 8, !tbaa !45
  %6 = getelementptr inbounds nuw %struct.Vec_Wec_t_, ptr %5, i32 0, i32 2
  %7 = load ptr, ptr %6, align 8, !tbaa !48
  %8 = load i32, ptr %4, align 4, !tbaa !3
  %9 = sext i32 %8 to i64
  %10 = getelementptr inbounds %struct.Vec_Int_t_, ptr %7, i64 %9
  %11 = call i32 @Vec_IntSize(ptr noundef %10)
  ret i32 %11
}

; Function Attrs: nounwind uwtable
define void @Abc_SuppProfile(ptr noundef %0, ptr noundef %1, i32 noundef %2) #0 {
  %4 = alloca ptr, align 8
  %5 = alloca ptr, align 8
  %6 = alloca i32, align 4
  %7 = alloca i32, align 4
  store ptr %0, ptr %4, align 8, !tbaa !45
  store ptr %1, ptr %5, align 8, !tbaa !45
  store i32 %2, ptr %6, align 4, !tbaa !3
  call void @llvm.lifetime.start.p0(i64 4, ptr %7) #13
  store i32 0, ptr %7, align 4, !tbaa !3
  br label %8

8:                                                ; preds = %21, %3
  %9 = load i32, ptr %7, align 4, !tbaa !3
  %10 = load i32, ptr %6, align 4, !tbaa !3
  %11 = icmp slt i32 %9, %10
  br i1 %11, label %12, label %24

12:                                               ; preds = %8
  %13 = load i32, ptr %7, align 4, !tbaa !3
  %14 = load ptr, ptr %4, align 8, !tbaa !45
  %15 = load i32, ptr %7, align 4, !tbaa !3
  %16 = call i32 @Vec_WecLevelSize(ptr noundef %14, i32 noundef %15)
  %17 = load ptr, ptr %5, align 8, !tbaa !45
  %18 = load i32, ptr %7, align 4, !tbaa !3
  %19 = call i32 @Vec_WecLevelSize(ptr noundef %17, i32 noundef %18)
  %20 = call i32 (ptr, ...) @printf(ptr noundef @.str.27, i32 noundef %13, i32 noundef %16, i32 noundef %19)
  br label %21

21:                                               ; preds = %12
  %22 = load i32, ptr %7, align 4, !tbaa !3
  %23 = add nsw i32 %22, 1
  store i32 %23, ptr %7, align 4, !tbaa !3
  br label %8, !llvm.loop !61

24:                                               ; preds = %8
  call void @llvm.lifetime.end.p0(i64 4, ptr %7) #13
  ret void
}