; Function Attrs: nofree nounwind uwtable
define void @Abc_SuppProfile(ptr noundef readonly captures(none) %0, ptr noundef readonly captures(none) %1, i32 noundef %2) local_unnamed_addr #6 {
  %4 = icmp sgt i32 %2, 0
  br i1 %4, label %.lr.ph, label %._crit_edge

.lr.ph:                                           ; preds = %3
  %5 = getelementptr i8, ptr %0, i64 8
  %6 = getelementptr i8, ptr %1, i64 8
  %wide.trip.count = zext nneg i32 %2 to i64
  br label %7

7:                                                ; preds = %.lr.ph, %7
  %indvars.iv = phi i64 [ 0, %.lr.ph ], [ %indvars.iv.next, %7 ]
  %.val7 = load ptr, ptr %5, align 8, !tbaa !41
  %8 = getelementptr %struct.Vec_Int_t_, ptr %.val7, i64 %indvars.iv, i32 1
  %.val.i = load i32, ptr %8, align 4, !tbaa !44
  %.val = load ptr, ptr %6, align 8, !tbaa !41
  %9 = getelementptr %struct.Vec_Int_t_, ptr %.val, i64 %indvars.iv, i32 1
  %.val.i8 = load i32, ptr %9, align 4, !tbaa !44
  %10 = trunc nuw nsw i64 %indvars.iv to i32
  %11 = tail call i32 (ptr, ...) @printf(ptr noundef nonnull dereferenceable(1) @.str.27, i32 noundef %10, i32 noundef %.val.i, i32 noundef %.val.i8)
  %indvars.iv.next = add nuw nsw i64 %indvars.iv, 1
  %exitcond.not = icmp eq i64 %indvars.iv.next, %wide.trip.count
  br i1 %exitcond.not, label %._crit_edge, label %7, !llvm.loop !57

._crit_edge:                                      ; preds = %7, %3
  ret void
}